target datalayout = "e-m:e-p270:32:32-p271:32:32-p272:64:64-i64:64-i128:128-f80:128-n8:16:32:64-S128"
target triple = "x86_64-pc-linux-gnu"

%struct.ClientConnectionInfo = type { ptr, i32 }

@MyClientConnectionInfo = dso_local global %struct.ClientConnectionInfo zeroinitializer, align 8

; Function Attrs: nounwind uwtable
define dso_local i64 @EstimateClientConnectionInfoSpace() #0 {
  %1 = alloca i64, align 8
  call void @llvm.lifetime.start.p0(i64 8, ptr %1) #12
  store i64 0, ptr %1, align 8
  %2 = load i64, ptr %1, align 8
  %3 = call i64 @add_size(i64 noundef %2, i64 noundef 8)
  store i64 %3, ptr %1, align 8
  %4 = load ptr, ptr @MyClientConnectionInfo, align 8
  %5 = icmp ne ptr %4, null
  br i1 %5, label %6, label %12

6:                                                ; preds = %0
  %7 = load i64, ptr %1, align 8
  %8 = load ptr, ptr @MyClientConnectionInfo, align 8
  %9 = call i64 @strlen(ptr noundef %8) #15
  %10 = add i64 %9, 1
  %11 = call i64 @add_size(i64 noundef %7, i64 noundef %10)
  store i64 %11, ptr %1, align 8
  br label %12

12:                                               ; preds = %6, %0
  %13 = load i64, ptr %1, align 8
  call void @llvm.lifetime.end.p0(i64 8, ptr %1) #12
  ret i64 %13
}