; Function Attrs: nounwind uwtable
define dso_local i64 @EstimateClientConnectionInfoSpace() local_unnamed_addr #0 {
  %1 = tail call i64 @add_size(i64 noundef 0, i64 noundef 8) #22
  %2 = load ptr, ptr @MyClientConnectionInfo, align 8
  %.not = icmp eq ptr %2, null
  br i1 %.not, label %7, label %3

3:                                                ; preds = %0
  %4 = tail call i64 @strlen(ptr noundef nonnull dereferenceable(1) %2) #25
  %5 = add i64 %4, 1
  %6 = tail call i64 @add_size(i64 noundef %1, i64 noundef %5) #22
  br label %7

7:                                                ; preds = %3, %0
  %.0 = phi i64 [ %6, %3 ], [ %1, %0 ]
  ret i64 %.0
}